target datalayout = "e-m:e-p270:32:32-p271:32:32-p272:64:64-i64:64-i128:128-f80:128-n8:16:32:64-S128"
target triple = "x86_64-unknown-linux-gnu"

%"class.base::BasicStringPiece" = type { ptr, i64 }
%"class.net::Curve25519KeyExchange" = type { %"class.net::KeyExchange", [32 x i8], [32 x i8] }
%"class.net::KeyExchange" = type { ptr }

; Function Attrs: mustprogress uwtable
define dso_local noundef zeroext i1 @_ZNK3net21Curve25519KeyExchange18CalculateSharedKeyEN4base16BasicStringPieceINSt7__cxx1112basic_stringIcSt11char_traitsIcESaIcEEEEEPS8_(ptr noundef nonnull align 8 dereferenceable(72) %this, ptr %peer_public_value.coerce0, i64 %peer_public_value.coerce1, ptr noundef %out_result) unnamed_addr #2 align 2 {
entry:
  %retval = alloca i1, align 1
  %peer_public_value = alloca %"class.base::BasicStringPiece", align 8
  %this.addr = alloca ptr, align 8
  %out_result.addr = alloca ptr, align 8
  %result = alloca [32 x i8], align 16
  %0 = getelementptr inbounds { ptr, i64 }, ptr %peer_public_value, i32 0, i32 0
  store ptr %peer_public_value.coerce0, ptr %0, align 8
  %1 = getelementptr inbounds { ptr, i64 }, ptr %peer_public_value, i32 0, i32 1
  store i64 %peer_public_value.coerce1, ptr %1, align 8
  store ptr %this, ptr %this.addr, align 8
  store ptr %out_result, ptr %out_result.addr, align 8
  %this1 = load ptr, ptr %this.addr, align 8
  %call = call noundef i64 @_ZNK4base16BasicStringPieceINSt7__cxx1112basic_stringIcSt11char_traitsIcESaIcEEEE4sizeEv(ptr noundef nonnull align 8 dereferenceable(16) %peer_public_value)
  %cmp = icmp ne i64 %call, 32
  br i1 %cmp, label %if.then, label %if.end

if.then:                                          ; preds = %entry
  store i1 false, ptr %retval, align 1
  br label %return

if.end:                                           ; preds = %entry
  %private_key_ = getelementptr inbounds %"class.net::Curve25519KeyExchange", ptr %this1, i32 0, i32 1
  %arraydecay = getelementptr inbounds [32 x i8], ptr %private_key_, i64 0, i64 0
  %call2 = call noundef ptr @_ZNK4base16BasicStringPieceINSt7__cxx1112basic_stringIcSt11char_traitsIcESaIcEEEE4dataEv(ptr noundef nonnull align 8 dereferenceable(16) %peer_public_value)
  %arraydecay3 = getelementptr inbounds [32 x i8], ptr %result, i64 0, i64 0
  %call4 = call noundef zeroext i1 @_ZN6crypto10curve2551910ScalarMultEPKhS2_Ph(ptr noundef %arraydecay, ptr noundef %call2, ptr noundef %arraydecay3)
  br i1 %call4, label %if.end6, label %if.then5

if.then5:                                         ; preds = %if.end
  store i1 false, ptr %retval, align 1
  br label %return

if.end6:                                          ; preds = %if.end
  %2 = load ptr, ptr %out_result.addr, align 8
  %arraydecay7 = getelementptr inbounds [32 x i8], ptr %result, i64 0, i64 0
  %call8 = call noundef nonnull align 8 dereferenceable(32) ptr @_ZNSt7__cxx1112basic_stringIcSt11char_traitsIcESaIcEE6assignEPKcm(ptr noundef nonnull align 8 dereferenceable(32) %2, ptr noundef %arraydecay7, i64 noundef 32)
  store i1 true, ptr %retval, align 1
  br label %return

return:                                           ; preds = %if.end6, %if.then5, %if.then
  %3 = load i1, ptr %retval, align 1
  ret i1 %3
}