; Function Attrs: mustprogress uwtable
define dso_local noundef zeroext i1 @_ZNK3net21Curve25519KeyExchange18CalculateSharedKeyEN4base16BasicStringPieceINSt7__cxx1112basic_stringIcSt11char_traitsIcESaIcEEEEEPS8_(ptr noundef nonnull align 8 dereferenceable(72) %this, ptr %peer_public_value.coerce0, i64 %peer_public_value.coerce1, ptr noundef %out_result) unnamed_addr #4 align 2 {
entry:
  %peer_public_value = alloca %"class.base::BasicStringPiece", align 8
  %result = alloca [32 x i8], align 16
  store ptr %peer_public_value.coerce0, ptr %peer_public_value, align 8
  %0 = getelementptr inbounds i8, ptr %peer_public_value, i64 8
  store i64 %peer_public_value.coerce1, ptr %0, align 8
  %call = call noundef i64 @_ZNK4base16BasicStringPieceINSt7__cxx1112basic_stringIcSt11char_traitsIcESaIcEEEE4sizeEv(ptr noundef nonnull align 8 dereferenceable(16) %peer_public_value)
  %cmp.not = icmp eq i64 %call, 32
  br i1 %cmp.not, label %if.end, label %return

if.end:                                           ; preds = %entry
  %private_key_ = getelementptr inbounds i8, ptr %this, i64 8
  %call2 = call noundef ptr @_ZNK4base16BasicStringPieceINSt7__cxx1112basic_stringIcSt11char_traitsIcESaIcEEEE4dataEv(ptr noundef nonnull align 8 dereferenceable(16) %peer_public_value)
  %call4 = call noundef zeroext i1 @_ZN6crypto10curve2551910ScalarMultEPKhS2_Ph(ptr noundef nonnull %private_key_, ptr noundef %call2, ptr noundef nonnull %result)
  br i1 %call4, label %if.end6, label %return

if.end6:                                          ; preds = %if.end
  %call8 = call noundef nonnull align 8 dereferenceable(32) ptr @_ZNSt7__cxx1112basic_stringIcSt11char_traitsIcESaIcEE6assignEPKcm(ptr noundef nonnull align 8 dereferenceable(32) %out_result, ptr noundef nonnull %result, i64 noundef 32)
  br label %return

return:                                           ; preds = %if.end, %entry, %if.end6
  %retval.0 = phi i1 [ true, %if.end6 ], [ false, %entry ], [ false, %if.end ]
  ret i1 %retval.0
}